; ModuleID = '32/2418.c'
source_filename = "32/2418.c"
target datalayout = "e-m:e-p270:32:32-p271:32:32-p272:64:64-i64:64-f80:128-n8:16:32:64-S128"
target triple = "x86_64-pc-linux-gnu"

@.str = private unnamed_addr constant [3 x i8] c"%d\00", align 1
@.str.1 = private unnamed_addr constant [3 x i8] c"%s\00", align 1
@.str.2 = private unnamed_addr constant [2 x i8] c"\0A\00", align 1

; Function Attrs: noinline nounwind uwtable
define dso_local i32 @main() #0 {
  %1 = alloca i32, align 4
  %2 = alloca i32, align 4
  %3 = alloca [201 x i8], align 16
  %4 = alloca [201 x i8], align 16
  %5 = alloca [201 x i32], align 16
  %6 = alloca [201 x i32], align 16
  %7 = alloca i32, align 4
  %8 = alloca i32, align 4
  %9 = alloca i32, align 4
  %10 = alloca i32, align 4
  %11 = alloca i32, align 4
  %12 = alloca i32, align 4
  store i32 0, i32* %1, align 4
  store i32 0, i32* %9, align 4
  store i32 0, i32* %8, align 4
  store i32 0, i32* %7, align 4
  store i32 0, i32* %2, align 4
  %13 = call i32 (i8*, ...) @__isoc99_scanf(i8* getelementptr inbounds ([3 x i8], [3 x i8]* @.str, i64 0, i64 0), i32* %2)
  store i32 0, i32* %12, align 4
  br label %14

14:                                               ; preds = %157, %0
  %15 = load i32, i32* %12, align 4
  %16 = load i32, i32* %2, align 4
  %17 = icmp slt i32 %15, %16
  br i1 %17, label %18, label %160

18:                                               ; preds = %14
  %19 = getelementptr inbounds [201 x i8], [201 x i8]* %3, i64 0, i64 0
  call void @llvm.memset.p0i8.i64(i8* align 16 %19, i8 0, i64 201, i1 false)
  %20 = getelementptr inbounds [201 x i8], [201 x i8]* %4, i64 0, i64 0
  call void @llvm.memset.p0i8.i64(i8* align 16 %20, i8 0, i64 201, i1 false)
  %21 = getelementptr inbounds [201 x i32], [201 x i32]* %5, i64 0, i64 0
  %22 = bitcast i32* %21 to i8*
  call void @llvm.memset.p0i8.i64(i8* align 16 %22, i8 0, i64 804, i1 false)
  %23 = getelementptr inbounds [201 x i32], [201 x i32]* %6, i64 0, i64 0
  %24 = bitcast i32* %23 to i8*
  call void @llvm.memset.p0i8.i64(i8* align 16 %24, i8 0, i64 804, i1 false)
  %25 = getelementptr inbounds [201 x i8], [201 x i8]* %3, i64 0, i64 0
  %26 = call i32 (i8*, ...) @__isoc99_scanf(i8* getelementptr inbounds ([3 x i8], [3 x i8]* @.str.1, i64 0, i64 0), i8* %25)
  %27 = getelementptr inbounds [201 x i8], [201 x i8]* %4, i64 0, i64 0
  %28 = call i32 (i8*, ...) @__isoc99_scanf(i8* getelementptr inbounds ([3 x i8], [3 x i8]* @.str.1, i64 0, i64 0), i8* %27)
  %29 = getelementptr inbounds [201 x i8], [201 x i8]* %3, i64 0, i64 0
  %30 = call i64 @strlen(i8* %29) #4
  %31 = trunc i64 %30 to i32
  store i32 %31, i32* %8, align 4
  %32 = getelementptr inbounds [201 x i8], [201 x i8]* %4, i64 0, i64 0
  %33 = call i64 @strlen(i8* %32) #4
  %34 = trunc i64 %33 to i32
  store i32 %34, i32* %9, align 4
  %35 = load i32, i32* %8, align 4
  %36 = load i32, i32* %9, align 4
  %37 = call i32 @maxlen(i32 %35, i32 %36)
  store i32 %37, i32* %7, align 4
  %38 = load i32, i32* %7, align 4
  store i32 %38, i32* %10, align 4
  %39 = load i32, i32* %8, align 4
  %40 = sub nsw i32 %39, 1
  store i32 %40, i32* %11, align 4
  br label %41

41:                                               ; preds = %54, %18
  %42 = load i32, i32* %11, align 4
  %43 = icmp sge i32 %42, 0
  br i1 %43, label %44, label %59

44:                                               ; preds = %41
  %45 = load i32, i32* %11, align 4
  %46 = sext i32 %45 to i64
  %47 = getelementptr inbounds [201 x i8], [201 x i8]* %3, i64 0, i64 %46
  %48 = load i8, i8* %47, align 1
  %49 = sext i8 %48 to i32
  %50 = sub nsw i32 %49, 48
  %51 = load i32, i32* %10, align 4
  %52 = sext i32 %51 to i64
  %53 = getelementptr inbounds [201 x i32], [201 x i32]* %5, i64 0, i64 %52
  store i32 %50, i32* %53, align 4
  br label %54

54:                                               ; preds = %44
  %55 = load i32, i32* %10, align 4
  %56 = add nsw i32 %55, -1
  store i32 %56, i32* %10, align 4
  %57 = load i32, i32* %11, align 4
  %58 = add nsw i32 %57, -1
  store i32 %58, i32* %11, align 4
  br label %41

59:                                               ; preds = %41
  %60 = load i32, i32* %7, align 4
  store i32 %60, i32* %10, align 4
  %61 = load i32, i32* %9, align 4
  %62 = sub nsw i32 %61, 1
  store i32 %62, i32* %11, align 4
  br label %63

63:                                               ; preds = %76, %59
  %64 = load i32, i32* %11, align 4
  %65 = icmp sge i32 %64, 0
  br i1 %65, label %66, label %81

66:                                               ; preds = %63
  %67 = load i32, i32* %11, align 4
  %68 = sext i32 %67 to i64
  %69 = getelementptr inbounds [201 x i8], [201 x i8]* %4, i64 0, i64 %68
  %70 = load i8, i8* %69, align 1
  %71 = sext i8 %70 to i32
  %72 = sub nsw i32 %71, 48
  %73 = load i32, i32* %10, align 4
  %74 = sext i32 %73 to i64
  %75 = getelementptr inbounds [201 x i32], [201 x i32]* %6, i64 0, i64 %74
  store i32 %72, i32* %75, align 4
  br label %76

76:                                               ; preds = %66
  %77 = load i32, i32* %10, align 4
  %78 = add nsw i32 %77, -1
  store i32 %78, i32* %10, align 4
  %79 = load i32, i32* %11, align 4
  %80 = add nsw i32 %79, -1
  store i32 %80, i32* %11, align 4
  br label %63

81:                                               ; preds = %63
  %82 = load i32, i32* %7, align 4
  store i32 %82, i32* %10, align 4
  br label %83

83:                                               ; preds = %127, %81
  %84 = load i32, i32* %10, align 4
  %85 = icmp sgt i32 %84, 0
  br i1 %85, label %86, label %130

86:                                               ; preds = %83
  %87 = load i32, i32* %10, align 4
  %88 = sext i32 %87 to i64
  %89 = getelementptr inbounds [201 x i32], [201 x i32]* %5, i64 0, i64 %88
  %90 = load i32, i32* %89, align 4
  %91 = load i32, i32* %10, align 4
  %92 = sext i32 %91 to i64
  %93 = getelementptr inbounds [201 x i32], [201 x i32]* %6, i64 0, i64 %92
  %94 = load i32, i32* %93, align 4
  %95 = icmp slt i32 %90, %94
  br i1 %95, label %96, label %116

96:                                               ; preds = %86
  %97 = load i32, i32* %10, align 4
  %98 = sext i32 %97 to i64
  %99 = getelementptr inbounds [201 x i32], [201 x i32]* %5, i64 0, i64 %98
  %100 = load i32, i32* %99, align 4
  %101 = add nsw i32 %100, 10
  %102 = load i32, i32* %10, align 4
  %103 = sext i32 %102 to i64
  %104 = getelementptr inbounds [201 x i32], [201 x i32]* %6, i64 0, i64 %103
  %105 = load i32, i32* %104, align 4
  %106 = sub nsw i32 %101, %105
  %107 = load i32, i32* %10, align 4
  %108 = sext i32 %107 to i64
  %109 = getelementptr inbounds [201 x i32], [201 x i32]* %5, i64 0, i64 %108
  store i32 %106, i32* %109, align 4
  %110 = load i32, i32* %10, align 4
  %111 = sub nsw i32 %110, 1
  %112 = sext i32 %111 to i64
  %113 = getelementptr inbounds [201 x i32], [201 x i32]* %5, i64 0, i64 %112
  %114 = load i32, i32* %113, align 4
  %115 = add nsw i32 %114, -1
  store i32 %115, i32* %113, align 4
  br label %126

116:                                              ; preds = %86
  %117 = load i32, i32* %10, align 4
  %118 = sext i32 %117 to i64
  %119 = getelementptr inbounds [201 x i32], [201 x i32]* %6, i64 0, i64 %118
  %120 = load i32, i32* %119, align 4
  %121 = load i32, i32* %10, align 4
  %122 = sext i32 %121 to i64
  %123 = getelementptr inbounds [201 x i32], [201 x i32]* %5, i64 0, i64 %122
  %124 = load i32, i32* %123, align 4
  %125 = sub nsw i32 %124, %120
  store i32 %125, i32* %123, align 4
  br label %126

126:                                              ; preds = %116, %96
  br label %127

127:                                              ; preds = %126
  %128 = load i32, i32* %10, align 4
  %129 = add nsw i32 %128, -1
  store i32 %129, i32* %10, align 4
  br label %83

130:                                              ; preds = %83
  store i32 0, i32* %10, align 4
  br label %131

131:                                              ; preds = %137, %130
  %132 = load i32, i32* %10, align 4
  %133 = sext i32 %132 to i64
  %134 = getelementptr inbounds [201 x i32], [201 x i32]* %5, i64 0, i64 %133
  %135 = load i32, i32* %134, align 4
  %136 = icmp eq i32 %135, 0
  br i1 %136, label %137, label %140

137:                                              ; preds = %131
  %138 = load i32, i32* %10, align 4
  %139 = add nsw i32 %138, 1
  store i32 %139, i32* %10, align 4
  br label %131

140:                                              ; preds = %131
  br label %141

141:                                              ; preds = %152, %140
  %142 = load i32, i32* %10, align 4
  %143 = load i32, i32* %7, align 4
  %144 = add nsw i32 %143, 1
  %145 = icmp slt i32 %142, %144
  br i1 %145, label %146, label %155

146:                                              ; preds = %141
  %147 = load i32, i32* %10, align 4
  %148 = sext i32 %147 to i64
  %149 = getelementptr inbounds [201 x i32], [201 x i32]* %5, i64 0, i64 %148
  %150 = load i32, i32* %149, align 4
  %151 = call i32 (i8*, ...) @printf(i8* getelementptr inbounds ([3 x i8], [3 x i8]* @.str, i64 0, i64 0), i32 %150)
  br label %152

152:                                              ; preds = %146
  %153 = load i32, i32* %10, align 4
  %154 = add nsw i32 %153, 1
  store i32 %154, i32* %10, align 4
  br label %141

155:                                              ; preds = %141
  %156 = call i32 (i8*, ...) @printf(i8* getelementptr inbounds ([2 x i8], [2 x i8]* @.str.2, i64 0, i64 0))
  br label %157

157:                                              ; preds = %155
  %158 = load i32, i32* %12, align 4
  %159 = add nsw i32 %158, 1
  store i32 %159, i32* %12, align 4
  br label %14

160:                                              ; preds = %14
  ret i32 0
}

declare dso_local i32 @__isoc99_scanf(i8*, ...) #1

; Function Attrs: argmemonly nounwind willreturn
declare void @llvm.memset.p0i8.i64(i8* nocapture writeonly, i8, i64, i1 immarg) #2

; Function Attrs: nounwind readonly
declare dso_local i64 @strlen(i8*) #3

; Function Attrs: noinline nounwind uwtable
define dso_local i32 @maxlen(i32 %0, i32 %1) #0 {
  %3 = alloca i32, align 4
  %4 = alloca i32, align 4
  %5 = alloca i32, align 4
  store i32 %0, i32* %4, align 4
  store i32 %1, i32* %5, align 4
  %6 = load i32, i32* %4, align 4
  %7 = load i32, i32* %5, align 4
  %8 = icmp sgt i32 %6, %7
  br i1 %8, label %9, label %11

9:                                                ; preds = %2
  %10 = load i32, i32* %4, align 4
  store i32 %10, i32* %3, align 4
  br label %13

11:                                               ; preds = %2
  %12 = load i32, i32* %5, align 4
  store i32 %12, i32* %3, align 4
  br label %13

13:                                               ; preds = %11, %9
  %14 = load i32, i32* %3, align 4
  ret i32 %14
}

declare dso_local i32 @printf(i8*, ...) #1


!llvm.module.flags = !{!0}
!llvm.ident = !{!1}

!0 = !{i32 1, !"wchar_size", i32 4}
!1 = !{!"clang version 10.0.0-4ubuntu1 "}
